; Function Attrs: mustprogress nofree nounwind willreturn memory(read, inaccessiblemem: none) uwtable
define dso_local noundef zeroext i1 @_ZN3net14QuicConnection31MaybeConsiderAsMemoryCorruptionERKNS_15QuicStreamFrameE(ptr nocapture noundef nonnull readonly align 8 dereferenceable(3372) %this, ptr nocapture noundef nonnull readonly align 8 dereferenceable(40) %frame) local_unnamed_addr #10 align 2 {
entry:
  %0 = load i32, ptr %frame, align 8
  %cmp = icmp ne i32 %0, 1
  %last_decrypted_packet_level_ = getelementptr inbounds i8, ptr %this, i64 608
  %1 = load i8, ptr %last_decrypted_packet_level_, align 8
  %cmp2.not = icmp eq i8 %1, 0
  %or.cond = select i1 %cmp, i1 %cmp2.not, i1 false
  br i1 %or.cond, label %if.end, label %return

if.end:                                           ; preds = %entry
  %perspective_ = getelementptr inbounds i8, ptr %this, i64 3204
  %2 = load i32, ptr %perspective_, align 4
  %cmp3 = icmp eq i32 %2, 0
  %data_length = getelementptr inbounds i8, ptr %frame, i64 6
  %3 = load i16, ptr %data_length, align 2
  %cmp5 = icmp ugt i16 %3, 3
  %or.cond5 = select i1 %cmp3, i1 %cmp5, i1 false
  br i1 %or.cond5, label %land.lhs.true6, label %if.end9

land.lhs.true6:                                   ; preds = %if.end
  %data_buffer = getelementptr inbounds i8, ptr %frame, i64 8
  %4 = load ptr, ptr %data_buffer, align 8
  %call = tail call i32 @strncmp(ptr noundef nonnull dereferenceable(1) %4, ptr noundef nonnull dereferenceable(5) @_ZN3netL5kCHLOE, i64 noundef 4) #27
  %cmp7 = icmp eq i32 %call, 0
  br i1 %cmp7, label %return, label %if.end21

if.end9:                                          ; preds = %if.end
  %cmp11 = icmp eq i32 %2, 1
  %or.cond6 = select i1 %cmp11, i1 %cmp5, i1 false
  br i1 %or.cond6, label %land.lhs.true16, label %if.end21

land.lhs.true16:                                  ; preds = %if.end9
  %data_buffer17 = getelementptr inbounds i8, ptr %frame, i64 8
  %5 = load ptr, ptr %data_buffer17, align 8
  %call18 = tail call i32 @strncmp(ptr noundef nonnull dereferenceable(1) %5, ptr noundef nonnull dereferenceable(4) @_ZN3netL4kREJE, i64 noundef 4) #27
  %cmp19 = icmp eq i32 %call18, 0
  br i1 %cmp19, label %return, label %if.end21

if.end21:                                         ; preds = %land.lhs.true6, %land.lhs.true16, %if.end9
  br label %return

return:                                           ; preds = %land.lhs.true16, %land.lhs.true6, %entry, %if.end21
  %retval.0 = phi i1 [ false, %if.end21 ], [ false, %entry ], [ true, %land.lhs.true6 ], [ true, %land.lhs.true16 ]
  ret i1 %retval.0
}